; Function Attrs: nounwind uwtable
define internal fastcc i32 @Gia_ObjLevel(ptr %.32.val, ptr captures(none) %.160.val, ptr noundef nonnull %0) unnamed_addr #0 {
  %2 = ptrtoint ptr %0 to i64
  %3 = ptrtoint ptr %.32.val to i64
  %4 = sub i64 %2, %3
  %5 = sdiv exact i64 %4, 12
  %6 = trunc i64 %5 to i32
  %7 = add nsw i32 %6, 1
  %8 = getelementptr inbounds nuw i8, ptr %.160.val, i64 4
  %9 = load i32, ptr %8, align 4
  %.not.i.not.i.i = icmp sgt i32 %9, %6
  br i1 %.not.i.not.i.i, label %Gia_ObjLevelId.exit, label %10

10:                                               ; preds = %1
  %11 = load i32, ptr %.160.val, align 8
  %12 = shl nsw i32 %11, 1
  %.not.i.i = icmp sgt i32 %12, %6
  %.not.i.i.not.i.i = icmp sgt i32 %11, %6
  br i1 %.not.i.i, label %25, label %13

13:                                               ; preds = %10
  br i1 %.not.i.i.not.i.i, label %Vec_IntGrow.exit.i.i.i, label %14

14:                                               ; preds = %13
  %15 = getelementptr inbounds nuw i8, ptr %.160.val, i64 8
  %16 = load ptr, ptr %15, align 8
  %.not9.i.i.i.i = icmp eq ptr %16, null
  %17 = sext i32 %7 to i64
  %18 = shl nsw i64 %17, 2
  br i1 %.not9.i.i.i.i, label %21, label %19

19:                                               ; preds = %14
  %20 = tail call ptr @realloc(ptr noundef nonnull %16, i64 noundef %18) #24
  br label %23

21:                                               ; preds = %14
  %22 = tail call noalias ptr @malloc(i64 noundef %18) #25
  br label %23

23:                                               ; preds = %21, %19
  %24 = phi ptr [ %20, %19 ], [ %22, %21 ]
  store ptr %24, ptr %15, align 8
  br label %Vec_IntGrow.exit.sink.split.i.i.i

25:                                               ; preds = %10
  br i1 %.not.i.i.not.i.i, label %Vec_IntGrow.exit.i.i.i, label %26

26:                                               ; preds = %25
  %27 = getelementptr inbounds nuw i8, ptr %.160.val, i64 8
  %28 = load ptr, ptr %27, align 8
  %.not9.i21.i.i.i = icmp eq ptr %28, null
  %29 = sext i32 %12 to i64
  %30 = shl nsw i64 %29, 2
  br i1 %.not9.i21.i.i.i, label %33, label %31

31:                                               ; preds = %26
  %32 = tail call ptr @realloc(ptr noundef nonnull %28, i64 noundef %30) #24
  br label %35

33:                                               ; preds = %26
  %34 = tail call noalias ptr @malloc(i64 noundef %30) #25
  br label %35

35:                                               ; preds = %33, %31
  %36 = phi ptr [ %32, %31 ], [ %34, %33 ]
  store ptr %36, ptr %27, align 8
  br label %Vec_IntGrow.exit.sink.split.i.i.i

Vec_IntGrow.exit.sink.split.i.i.i:                ; preds = %35, %23
  %.sink.i.i.i = phi i32 [ %12, %35 ], [ %7, %23 ]
  store i32 %.sink.i.i.i, ptr %.160.val, align 8
  %.pre.i.i = load i32, ptr %8, align 4
  br label %Vec_IntGrow.exit.i.i.i

Vec_IntGrow.exit.i.i.i:                           ; preds = %Vec_IntGrow.exit.sink.split.i.i.i, %25, %13
  %37 = phi i32 [ %.pre.i.i, %Vec_IntGrow.exit.sink.split.i.i.i ], [ %9, %25 ], [ %9, %13 ]
  %.not3.i.i = icmp sgt i32 %37, %6
  br i1 %.not3.i.i, label %._crit_edge.i.i.i, label %.lr.ph.i.i.i

.lr.ph.i.i.i:                                     ; preds = %Vec_IntGrow.exit.i.i.i
  %38 = getelementptr inbounds nuw i8, ptr %.160.val, i64 8
  %39 = sext i32 %37 to i64
  %wide.trip.count.i.i.i = sext i32 %7 to i64
  br label %40

40:                                               ; preds = %40, %.lr.ph.i.i.i
  %indvars.iv.i.i.i = phi i64 [ %39, %.lr.ph.i.i.i ], [ %indvars.iv.next.i.i.i, %40 ]
  %41 = load ptr, ptr %38, align 8
  %42 = getelementptr inbounds i32, ptr %41, i64 %indvars.iv.i.i.i
  store i32 0, ptr %42, align 4
  %indvars.iv.next.i.i.i = add nsw i64 %indvars.iv.i.i.i, 1
  %exitcond.not.i.i.i = icmp eq i64 %indvars.iv.next.i.i.i, %wide.trip.count.i.i.i
  br i1 %exitcond.not.i.i.i, label %._crit_edge.i.i.i, label %40, !llvm.loop !69

._crit_edge.i.i.i:                                ; preds = %40, %Vec_IntGrow.exit.i.i.i
  store i32 %7, ptr %8, align 4
  br label %Gia_ObjLevelId.exit

Gia_ObjLevelId.exit:                              ; preds = %1, %._crit_edge.i.i.i
  %43 = getelementptr i8, ptr %.160.val, i64 8
  %.val.i.i = load ptr, ptr %43, align 8
  %sext = shl i64 %5, 32
  %44 = ashr exact i64 %sext, 30
  %45 = getelementptr inbounds i8, ptr %.val.i.i, i64 %44
  %46 = load i32, ptr %45, align 4
  ret i32 %46
}